; Function Attrs: mustprogress uwtable
define hidden noundef ptr @_Z33pj_projection_specific_setup_gs48P8PJconsts(ptr noundef %0) local_unnamed_addr #0 {
  %2 = tail call noalias dereferenceable_or_null(32) ptr @calloc(i64 noundef 1, i64 noundef 32) #6
  %3 = icmp eq ptr %2, null
  br i1 %3, label %4, label %_ZL14mod_ster_setupP8PJconsts.exit

4:                                                ; preds = %1
  %5 = tail call noundef ptr @_Z21pj_default_destructorP8PJconstsi(ptr noundef %0, i32 noundef 4096)
  br label %16

_ZL14mod_ster_setupP8PJconsts.exit:               ; preds = %1
  %6 = getelementptr inbounds nuw i8, ptr %0, i64 88
  store ptr %2, ptr %6, align 8, !tbaa !3
  %7 = getelementptr inbounds nuw i8, ptr %2, i64 24
  store i32 4, ptr %7, align 8, !tbaa !36
  %8 = getelementptr inbounds nuw i8, ptr %0, i64 440
  store double 0xBFFACEE9F37BEBD6, ptr %8, align 8, !tbaa !38
  %9 = getelementptr inbounds nuw i8, ptr %0, i64 448
  store double 0x3FE5C81E15D4AF9D, ptr %9, align 8, !tbaa !39
  store ptr @_ZZ33pj_projection_specific_setup_gs48P8PJconstsE2AB, ptr %2, align 8, !tbaa !40
  %10 = getelementptr inbounds nuw i8, ptr %0, i64 216
  store double 0.000000e+00, ptr %10, align 8, !tbaa !41
  %11 = getelementptr inbounds nuw i8, ptr %0, i64 168
  store double 0x41584DAD40000000, ptr %11, align 8, !tbaa !51
  %12 = getelementptr inbounds nuw i8, ptr %2, i64 16
  store double 0x3FE4236484487ABD, ptr %12, align 8, !tbaa !42
  %13 = getelementptr inbounds nuw i8, ptr %2, i64 8
  store double 0x3FE8DE613515A328, ptr %13, align 8, !tbaa !43
  %14 = getelementptr inbounds nuw i8, ptr %0, i64 112
  store ptr @_ZL18mod_ster_e_inverse5PJ_XYP8PJconsts, ptr %14, align 8, !tbaa !44
  %15 = getelementptr inbounds nuw i8, ptr %0, i64 104
  store ptr @_ZL18mod_ster_e_forward5PJ_LPP8PJconsts, ptr %15, align 8, !tbaa !45
  br label %16

16:                                               ; preds = %_ZL14mod_ster_setupP8PJconsts.exit, %4
  %.0 = phi ptr [ %5, %4 ], [ %0, %_ZL14mod_ster_setupP8PJconsts.exit ]
  ret ptr %.0
}